; Function Attrs: nounwind uwtable
define ptr @l_Array_forIn_x27Unsafe_loop___at_Lean_importModulesCore_go___spec__9___boxed(ptr noundef %0, ptr noundef %1, ptr noundef %2, ptr noundef %3, ptr noundef %4, ptr noundef %5, ptr noundef %6, ptr noundef %7, ptr noundef %8, ptr noundef %9, ptr noundef %10, ptr noundef %11) local_unnamed_addr #1 {
  %13 = ptrtoint ptr %0 to i64
  %14 = lshr i64 %13, 1
  %15 = trunc i64 %14 to i8
  %16 = and i64 %13, 1
  %.not = icmp eq i64 %16, 0
  br i1 %.not, label %17, label %lean_dec.exit33

17:                                               ; preds = %12
  %18 = load i32, ptr %0, align 4, !tbaa !4
  %19 = icmp sgt i32 %18, 1
  br i1 %19, label %20, label %22, !prof !11

20:                                               ; preds = %17
  %21 = add nsw i32 %18, -1
  store i32 %21, ptr %0, align 4, !tbaa !4
  br label %lean_dec.exit33

22:                                               ; preds = %17
  %.not.i = icmp eq i32 %18, 0
  br i1 %.not.i, label %lean_dec.exit33, label %23

23:                                               ; preds = %22
  tail call void @lean_dec_ref_cold(ptr noundef nonnull %0) #10
  br label %lean_dec.exit33

lean_dec.exit33:                                  ; preds = %23, %22, %20, %12
  %24 = ptrtoint ptr %3 to i64
  %25 = lshr i64 %24, 1
  %26 = trunc i64 %25 to i8
  %27 = and i64 %24, 1
  %.not51 = icmp eq i64 %27, 0
  br i1 %.not51, label %28, label %lean_dec.exit32

28:                                               ; preds = %lean_dec.exit33
  %29 = load i32, ptr %3, align 4, !tbaa !4
  %30 = icmp sgt i32 %29, 1
  br i1 %30, label %31, label %33, !prof !11

31:                                               ; preds = %28
  %32 = add nsw i32 %29, -1
  store i32 %32, ptr %3, align 4, !tbaa !4
  br label %lean_dec.exit32

33:                                               ; preds = %28
  %.not.i34 = icmp eq i32 %29, 0
  br i1 %.not.i34, label %lean_dec.exit32, label %34

34:                                               ; preds = %33
  tail call void @lean_dec_ref_cold(ptr noundef nonnull %3) #10
  br label %lean_dec.exit32

lean_dec.exit32:                                  ; preds = %34, %33, %31, %lean_dec.exit33
  %35 = ptrtoint ptr %4 to i64
  %36 = lshr i64 %35, 1
  %37 = trunc i64 %36 to i8
  %38 = and i64 %35, 1
  %.not52 = icmp eq i64 %38, 0
  br i1 %.not52, label %39, label %lean_dec.exit31

39:                                               ; preds = %lean_dec.exit32
  %40 = load i32, ptr %4, align 4, !tbaa !4
  %41 = icmp sgt i32 %40, 1
  br i1 %41, label %42, label %44, !prof !11

42:                                               ; preds = %39
  %43 = add nsw i32 %40, -1
  store i32 %43, ptr %4, align 4, !tbaa !4
  br label %lean_dec.exit31

44:                                               ; preds = %39
  %.not.i36 = icmp eq i32 %40, 0
  br i1 %.not.i36, label %lean_dec.exit31, label %45

45:                                               ; preds = %44
  tail call void @lean_dec_ref_cold(ptr noundef nonnull %4) #10
  br label %lean_dec.exit31

lean_dec.exit31:                                  ; preds = %45, %44, %42, %lean_dec.exit32
  %46 = getelementptr i8, ptr %7, i64 8
  %.val50 = load i64, ptr %46, align 8, !tbaa !15
  %47 = ptrtoint ptr %7 to i64
  %48 = and i64 %47, 1
  %.not53 = icmp eq i64 %48, 0
  br i1 %.not53, label %49, label %lean_dec.exit30

49:                                               ; preds = %lean_dec.exit31
  %50 = load i32, ptr %7, align 4, !tbaa !4
  %51 = icmp sgt i32 %50, 1
  br i1 %51, label %52, label %54, !prof !11

52:                                               ; preds = %49
  %53 = add nsw i32 %50, -1
  store i32 %53, ptr %7, align 4, !tbaa !4
  br label %lean_dec.exit30

54:                                               ; preds = %49
  %.not.i38 = icmp eq i32 %50, 0
  br i1 %.not.i38, label %lean_dec.exit30, label %55

55:                                               ; preds = %54
  tail call void @lean_dec_ref_cold(ptr noundef nonnull %7) #10
  br label %lean_dec.exit30

lean_dec.exit30:                                  ; preds = %55, %54, %52, %lean_dec.exit31
  %56 = getelementptr i8, ptr %8, i64 8
  %.val = load i64, ptr %56, align 8, !tbaa !15
  %57 = ptrtoint ptr %8 to i64
  %58 = and i64 %57, 1
  %.not54 = icmp eq i64 %58, 0
  br i1 %.not54, label %59, label %lean_dec.exit29

59:                                               ; preds = %lean_dec.exit30
  %60 = load i32, ptr %8, align 4, !tbaa !4
  %61 = icmp sgt i32 %60, 1
  br i1 %61, label %62, label %64, !prof !11

62:                                               ; preds = %59
  %63 = add nsw i32 %60, -1
  store i32 %63, ptr %8, align 4, !tbaa !4
  br label %lean_dec.exit29

64:                                               ; preds = %59
  %.not.i40 = icmp eq i32 %60, 0
  br i1 %.not.i40, label %lean_dec.exit29, label %65

65:                                               ; preds = %64
  tail call void @lean_dec_ref_cold(ptr noundef nonnull %8) #10
  br label %lean_dec.exit29

lean_dec.exit29:                                  ; preds = %65, %64, %62, %lean_dec.exit30
  %66 = tail call ptr @l_Array_forIn_x27Unsafe_loop___at_Lean_importModulesCore_go___spec__9(i8 noundef zeroext %15, ptr noundef %1, ptr noundef %2, i8 noundef zeroext %26, i8 noundef zeroext %37, ptr poison, ptr noundef %6, i64 noundef %.val50, i64 noundef %.val, ptr noundef %9, ptr noundef %10, ptr noundef %11)
  %67 = ptrtoint ptr %6 to i64
  %68 = and i64 %67, 1
  %.not55 = icmp eq i64 %68, 0
  br i1 %.not55, label %69, label %lean_dec.exit28

69:                                               ; preds = %lean_dec.exit29
  %70 = load i32, ptr %6, align 4, !tbaa !4
  %71 = icmp sgt i32 %70, 1
  br i1 %71, label %72, label %74, !prof !11

72:                                               ; preds = %69
  %73 = add nsw i32 %70, -1
  store i32 %73, ptr %6, align 4, !tbaa !4
  br label %lean_dec.exit28

74:                                               ; preds = %69
  %.not.i42 = icmp eq i32 %70, 0
  br i1 %.not.i42, label %lean_dec.exit28, label %75

75:                                               ; preds = %74
  tail call void @lean_dec_ref_cold(ptr noundef nonnull %6) #10
  br label %lean_dec.exit28

lean_dec.exit28:                                  ; preds = %75, %74, %72, %lean_dec.exit29
  %76 = ptrtoint ptr %5 to i64
  %77 = and i64 %76, 1
  %.not56 = icmp eq i64 %77, 0
  br i1 %.not56, label %78, label %lean_dec.exit27

78:                                               ; preds = %lean_dec.exit28
  %79 = load i32, ptr %5, align 4, !tbaa !4
  %80 = icmp sgt i32 %79, 1
  br i1 %80, label %81, label %83, !prof !11

81:                                               ; preds = %78
  %82 = add nsw i32 %79, -1
  store i32 %82, ptr %5, align 4, !tbaa !4
  br label %lean_dec.exit27

83:                                               ; preds = %78
  %.not.i44 = icmp eq i32 %79, 0
  br i1 %.not.i44, label %lean_dec.exit27, label %84

84:                                               ; preds = %83
  tail call void @lean_dec_ref_cold(ptr noundef nonnull %5) #10
  br label %lean_dec.exit27

lean_dec.exit27:                                  ; preds = %84, %83, %81, %lean_dec.exit28
  %85 = ptrtoint ptr %2 to i64
  %86 = and i64 %85, 1
  %.not57 = icmp eq i64 %86, 0
  br i1 %.not57, label %87, label %lean_dec.exit26

87:                                               ; preds = %lean_dec.exit27
  %88 = load i32, ptr %2, align 4, !tbaa !4
  %89 = icmp sgt i32 %88, 1
  br i1 %89, label %90, label %92, !prof !11

90:                                               ; preds = %87
  %91 = add nsw i32 %88, -1
  store i32 %91, ptr %2, align 4, !tbaa !4
  br label %lean_dec.exit26

92:                                               ; preds = %87
  %.not.i46 = icmp eq i32 %88, 0
  br i1 %.not.i46, label %lean_dec.exit26, label %93

93:                                               ; preds = %92
  tail call void @lean_dec_ref_cold(ptr noundef nonnull %2) #10
  br label %lean_dec.exit26

lean_dec.exit26:                                  ; preds = %93, %92, %90, %lean_dec.exit27
  %94 = ptrtoint ptr %1 to i64
  %95 = and i64 %94, 1
  %.not58 = icmp eq i64 %95, 0
  br i1 %.not58, label %96, label %lean_dec.exit

96:                                               ; preds = %lean_dec.exit26
  %97 = load i32, ptr %1, align 4, !tbaa !4
  %98 = icmp sgt i32 %97, 1
  br i1 %98, label %99, label %101, !prof !11

99:                                               ; preds = %96
  %100 = add nsw i32 %97, -1
  store i32 %100, ptr %1, align 4, !tbaa !4
  br label %lean_dec.exit

101:                                              ; preds = %96
  %.not.i48 = icmp eq i32 %97, 0
  br i1 %.not.i48, label %lean_dec.exit, label %102

102:                                              ; preds = %101
  tail call void @lean_dec_ref_cold(ptr noundef nonnull %1) #10
  br label %lean_dec.exit

lean_dec.exit:                                    ; preds = %102, %101, %99, %lean_dec.exit26
  ret ptr %66
}